target datalayout = "e-m:e-p270:32:32-p271:32:32-p272:64:64-i64:64-i128:128-f80:128-n8:16:32:64-S128"
target triple = "x86_64-pc-linux-gnu"

%"class.spacer::pob" = type { i32, %class.ref, ptr, %class.obj_ref, %class.ref_vector, %class.obj_ref, i64, i32, %class.scoped_ptr, %class.ptr_vector.0, %class.ptr_vector.2, i32, %class.obj_ref, i32, %class.scoped_ptr.4 }
%class.ref = type { ptr }
%class.ref_vector = type { %class.ref_vector_core }
%class.ref_vector_core = type { %class.ref_manager_wrapper, %class.ptr_vector }
%class.ref_manager_wrapper = type { ptr }
%class.ptr_vector = type { %class.vector }
%class.vector = type { ptr }
%class.scoped_ptr = type { ptr }
%class.ptr_vector.0 = type { %class.vector.1 }
%class.vector.1 = type { ptr }
%class.ptr_vector.2 = type { %class.vector.3 }
%class.vector.3 = type { ptr }
%class.obj_ref = type { ptr, ptr }
%class.scoped_ptr.4 = type { ptr }
%class.obj_ref.5 = type { ptr, ptr }
%class.stopwatch = type <{ %"class.std::chrono::time_point", %"class.std::chrono::duration", i8, [7 x i8] }>
%"class.std::chrono::time_point" = type { %"class.std::chrono::duration" }
%"class.std::chrono::duration" = type { i64 }
%"class.spacer::context" = type { %class.stopwatch, %class.stopwatch, %class.stopwatch, %class.stopwatch, %class.stopwatch, %class.stopwatch, ptr, ptr, ptr, %"class.spacer::manager", %class.scoped_ptr.87, %class.scoped_ptr.87, %class.scoped_ptr.87, %class.random_gen, i32, %class.obj_map.88, %class.obj_ref.5, ptr, %"class.spacer::pob_queue", i32, i32, i32, %class.ptr_buffer, ptr, ptr, ptr, %"struct.spacer::context::stats", %class.ref.93, %class.ref.94, i8, i8, i8, i8, i8, i8, i8, i8, i8, i8, i8, i8, i8, i8, i8, i8, i8, i8, i8, i8, i8, i8, i8, i8, i8, i8, i8, i8, i8, i8, i8, i8, i8, i8, i8, i32, i32, i32, i32, %class.scoped_ptr_vector, ptr }
%"class.spacer::manager" = type { ptr, %"class.spacer::sym_mux" }
%"class.spacer::sym_mux" = type { ptr, %class.obj_map.77, %class.obj_map.82 }
%class.obj_map.77 = type { %class.core_hashtable.78 }
%class.core_hashtable.78 = type <{ ptr, i32, i32, i32, [4 x i8] }>
%class.obj_map.82 = type { %class.core_hashtable.83 }
%class.core_hashtable.83 = type <{ ptr, i32, i32, i32, [4 x i8] }>
%class.scoped_ptr.87 = type { ptr }
%class.random_gen = type { i32 }
%class.obj_map.88 = type { %class.core_hashtable.89 }
%class.core_hashtable.89 = type <{ ptr, i32, i32, i32, [4 x i8] }>
%"class.spacer::pob_queue" = type { %class.ref, i32, i32, %"class.std::priority_queue" }
%"class.std::priority_queue" = type <{ %"class.std::vector", [8 x i8] }>
%"class.std::vector" = type { %"struct.std::_Vector_base" }
%"struct.std::_Vector_base" = type { %"struct.std::_Vector_base<spacer::pob *, std::allocator<spacer::pob *>>::_Vector_impl" }
%"struct.std::_Vector_base<spacer::pob *, std::allocator<spacer::pob *>>::_Vector_impl" = type { %"struct.std::_Vector_base<spacer::pob *, std::allocator<spacer::pob *>>::_Vector_impl_data" }
%"struct.std::_Vector_base<spacer::pob *, std::allocator<spacer::pob *>>::_Vector_impl_data" = type { ptr, ptr, ptr }
%class.ptr_buffer = type { %class.buffer }
%class.buffer = type { ptr, i32, i32, [128 x i8] }
%"struct.spacer::context::stats" = type { i32, i32, i32, i32, i32, i32, i32, i32, i32, i32, i32, i32, i32, i32, i32, i32, i32, i32, i32 }
%class.ref.93 = type { ptr }
%class.ref.94 = type { ptr }
%class.scoped_ptr_vector = type { %class.ptr_vector.95 }
%class.ptr_vector.95 = type { %class.vector.96 }
%class.vector.96 = type { ptr }

; Function Attrs: mustprogress nounwind uwtable
define linkonce_odr hidden noundef i32 @_ZNK6spacer9pob_queue9max_levelEv(ptr noundef nonnull align 8 dereferenceable(48) %0) #5 comdat align 2 {
  %2 = alloca ptr, align 8
  store ptr %0, ptr %2, align 8, !tbaa !197
  %3 = load ptr, ptr %2, align 8
  %4 = getelementptr inbounds nuw %"class.spacer::pob_queue", ptr %3, i32 0, i32 1
  %5 = load i32, ptr %4, align 8, !tbaa !199
  ret i32 %5
}

; Function Attrs: mustprogress nounwind uwtable
define linkonce_odr hidden noundef i32 @_ZNK6spacer3pob13desired_levelEv(ptr noundef nonnull align 8 dereferenceable(152) %0) #5 comdat align 2 {
  %2 = alloca ptr, align 8
  store ptr %0, ptr %2, align 8, !tbaa !3
  %3 = load ptr, ptr %2, align 8
  %4 = getelementptr inbounds nuw %"class.spacer::pob", ptr %3, i32 0, i32 6
  %5 = load i64, ptr %4, align 8
  %6 = lshr i64 %5, 32
  %7 = and i64 %6, 65535
  %8 = trunc i64 %7 to i32
  ret i32 %8
}

; Function Attrs: mustprogress nounwind uwtable
define linkonce_odr hidden noundef i32 @_ZNK6spacer3pob5levelEv(ptr noundef nonnull align 8 dereferenceable(152) %0) #5 comdat align 2 {
  %2 = alloca ptr, align 8
  store ptr %0, ptr %2, align 8, !tbaa !3
  %3 = load ptr, ptr %2, align 8
  %4 = getelementptr inbounds nuw %"class.spacer::pob", ptr %3, i32 0, i32 6
  %5 = load i64, ptr %4, align 8
  %6 = and i64 %5, 65535
  %7 = trunc i64 %6 to i32
  ret i32 %7
}

; Function Attrs: mustprogress uwtable
define hidden noundef zeroext i1 @_ZN6spacer7context10is_requeueERNS_3pobE(ptr noundef nonnull align 8 dereferenceable(712) %0, ptr noundef nonnull align 8 dereferenceable(152) %1) #4 align 2 {
  %3 = alloca i1, align 1
  %4 = alloca ptr, align 8
  %5 = alloca ptr, align 8
  %6 = alloca i32, align 4
  store ptr %0, ptr %4, align 8, !tbaa !129
  store ptr %1, ptr %5, align 8, !tbaa !3
  %7 = load ptr, ptr %4, align 8
  %8 = load ptr, ptr %5, align 8, !tbaa !3
  %9 = call noundef i32 @_ZNK6spacer3pob5levelEv(ptr noundef nonnull align 8 dereferenceable(152) %8)
  %10 = load ptr, ptr %5, align 8, !tbaa !3
  %11 = call noundef i32 @_ZNK6spacer3pob13desired_levelEv(ptr noundef nonnull align 8 dereferenceable(152) %10)
  %12 = icmp ule i32 %9, %11
  br i1 %12, label %13, label %14

13:                                               ; preds = %2
  store i1 true, ptr %3, align 1
  br label %37

14:                                               ; preds = %2
  %15 = getelementptr inbounds nuw %"class.spacer::context", ptr %7, i32 0, i32 44
  %16 = load i8, ptr %15, align 1, !tbaa !728, !range !40, !noundef !41
  %17 = trunc i8 %16 to i1
  br i1 %17, label %19, label %18

18:                                               ; preds = %14
  store i1 false, ptr %3, align 1
  br label %37

19:                                               ; preds = %14
  call void @llvm.lifetime.start.p0(i64 4, ptr %6) #3
  %20 = getelementptr inbounds nuw %"class.spacer::context", ptr %7, i32 0, i32 64
  %21 = load i32, ptr %20, align 4, !tbaa !729
  store i32 %21, ptr %6, align 4, !tbaa !10
  %22 = load ptr, ptr %5, align 8, !tbaa !3
  %23 = call noundef i32 @_ZNK6spacer3pob5levelEv(ptr noundef nonnull align 8 dereferenceable(152) %22)
  %24 = getelementptr inbounds nuw %"class.spacer::context", ptr %7, i32 0, i32 18
  %25 = call noundef i32 @_ZNK6spacer9pob_queue9max_levelEv(ptr noundef nonnull align 8 dereferenceable(48) %24)
  %26 = icmp uge i32 %23, %25
  br i1 %26, label %35, label %27

27:                                               ; preds = %19
  %28 = getelementptr inbounds nuw %"class.spacer::context", ptr %7, i32 0, i32 18
  %29 = call noundef i32 @_ZNK6spacer9pob_queue9max_levelEv(ptr noundef nonnull align 8 dereferenceable(48) %28)
  %30 = load ptr, ptr %5, align 8, !tbaa !3
  %31 = call noundef i32 @_ZNK6spacer3pob5levelEv(ptr noundef nonnull align 8 dereferenceable(152) %30)
  %32 = sub i32 %29, %31
  %33 = load i32, ptr %6, align 4, !tbaa !10
  %34 = icmp ule i32 %32, %33
  br label %35

35:                                               ; preds = %27, %19
  %36 = phi i1 [ true, %19 ], [ %34, %27 ]
  store i1 %36, ptr %3, align 1
  call void @llvm.lifetime.end.p0(i64 4, ptr %6) #3
  br label %37

37:                                               ; preds = %35, %18, %13
  %38 = load i1, ptr %3, align 1
  ret i1 %38
}