; Function Attrs: mustprogress nofree norecurse nosync nounwind willreturn memory(argmem: read) uwtable
define hidden noundef zeroext i1 @_ZN6spacer7context10is_requeueERNS_3pobE(ptr noundef nonnull readonly align 8 captures(none) dereferenceable(712) %0, ptr noundef nonnull readonly align 8 captures(none) dereferenceable(152) %1) local_unnamed_addr #17 align 2 {
  %3 = getelementptr inbounds nuw i8, ptr %1, i64 72
  %4 = load i64, ptr %3, align 8
  %5 = trunc i64 %4 to i32
  %6 = and i32 %5, 65535
  %7 = lshr i64 %4, 32
  %8 = trunc nuw i64 %7 to i32
  %9 = and i32 %8, 65535
  %.not = icmp samesign ugt i32 %6, %9
  br i1 %.not, label %10, label %22

10:                                               ; preds = %2
  %11 = getelementptr inbounds nuw i8, ptr %0, i64 655
  %12 = load i8, ptr %11, align 1, !tbaa !757, !range !156, !noundef !157
  %13 = trunc nuw i8 %12 to i1
  br i1 %13, label %14, label %22

14:                                               ; preds = %10
  %15 = getelementptr inbounds nuw i8, ptr %0, i64 320
  %16 = load i32, ptr %15, align 8, !tbaa !166
  %.not6 = icmp ult i32 %6, %16
  br i1 %.not6, label %17, label %22

17:                                               ; preds = %14
  %18 = getelementptr inbounds nuw i8, ptr %0, i64 676
  %19 = load i32, ptr %18, align 4, !tbaa !758
  %20 = sub nuw i32 %16, %6
  %21 = icmp ule i32 %20, %19
  br label %22

22:                                               ; preds = %14, %17, %10, %2
  %.0 = phi i1 [ true, %2 ], [ false, %10 ], [ true, %14 ], [ %21, %17 ]
  ret i1 %.0
}